; Function Attrs: nounwind uwtable
define hidden void @llvm_blake3_hash_many(ptr noundef %0, i64 noundef %1, i64 noundef %2, ptr noundef %3, i64 noundef %4, i1 noundef zeroext %5, i8 noundef zeroext %6, i8 noundef zeroext %7, i8 noundef zeroext %8, ptr noundef %9) local_unnamed_addr #0 {
  %11 = load i32, ptr @g_cpu_features, align 4
  %.not.i = icmp eq i32 %11, 1073741824
  br i1 %.not.i, label %12, label %get_cpu_features.exit

12:                                               ; preds = %10
  %13 = tail call { i32, i32, i32, i32 } asm sideeffect "cpuid\0A", "={ax},={bx},={cx},={dx},{ax},~{dirflag},~{fpsr},~{flags}"(i32 0) #2, !srcloc !4
  %14 = extractvalue { i32, i32, i32, i32 } %13, 0
  %15 = tail call { i32, i32, i32, i32 } asm sideeffect "cpuid\0A", "={ax},={bx},={cx},={dx},{ax},~{dirflag},~{fpsr},~{flags}"(i32 1) #2, !srcloc !4
  %16 = extractvalue { i32, i32, i32, i32 } %15, 2
  %17 = and i32 %16, 1
  %.not22.i = icmp eq i32 %17, 0
  %spec.select.i = select i1 %.not22.i, i32 1, i32 3
  %18 = lshr i32 %16, 17
  %19 = and i32 %18, 4
  %.1.i = or disjoint i32 %spec.select.i, %19
  %20 = and i32 %16, 134217728
  %.not24.i = icmp eq i32 %20, 0
  br i1 %.not24.i, label %44, label %21

21:                                               ; preds = %12
  %22 = tail call { i32, i32 } asm sideeffect "xgetbv\0A", "={ax},={dx},{cx},~{dirflag},~{fpsr},~{flags}"(i32 0) #2, !srcloc !5
  %23 = extractvalue { i32, i32 } %22, 0
  %24 = zext i32 %23 to i64
  %25 = and i64 %24, 6
  %26 = icmp eq i64 %25, 6
  br i1 %26, label %27, label %44

27:                                               ; preds = %21
  %28 = lshr i32 %16, 25
  %29 = and i32 %28, 8
  %spec.select29.i = or disjoint i32 %.1.i, %29
  %30 = icmp sgt i32 %14, 6
  br i1 %30, label %31, label %44

31:                                               ; preds = %27
  %32 = tail call { i32, i32, i32, i32 } asm sideeffect "cpuid\0A", "={ax},={bx},={cx},={dx},{ax},{cx},~{dirflag},~{fpsr},~{flags}"(i32 7, i32 0) #2, !srcloc !6
  %33 = extractvalue { i32, i32, i32, i32 } %32, 1
  %34 = lshr i32 %33, 1
  %35 = and i32 %34, 16
  %spec.select30.i = or disjoint i32 %35, %spec.select29.i
  %36 = and i64 %24, 224
  %37 = icmp eq i64 %36, 224
  br i1 %37, label %38, label %44

38:                                               ; preds = %31
  %39 = lshr i32 %33, 25
  %40 = and i32 %39, 64
  %41 = lshr i32 %33, 11
  %42 = and i32 %41, 32
  %43 = or disjoint i32 %40, %42
  %spec.select32.i = or disjoint i32 %43, %spec.select30.i
  br label %44

44:                                               ; preds = %38, %31, %27, %21, %12
  %.2.i = phi i32 [ %spec.select30.i, %31 ], [ %spec.select29.i, %27 ], [ %.1.i, %21 ], [ %.1.i, %12 ], [ %spec.select32.i, %38 ]
  store i32 %.2.i, ptr @g_cpu_features, align 4
  br label %get_cpu_features.exit

get_cpu_features.exit:                            ; preds = %10, %44
  tail call void @llvm_blake3_hash_many_portable(ptr noundef %0, i64 noundef %1, i64 noundef %2, ptr noundef %3, i64 noundef %4, i1 noundef zeroext %5, i8 noundef zeroext %6, i8 noundef zeroext %7, i8 noundef zeroext %8, ptr noundef %9) #2
  ret void
}